target datalayout = "e-m:e-p270:32:32-p271:32:32-p272:64:64-i64:64-i128:128-f80:128-n8:16:32:64-S128"
target triple = "x86_64-pc-linux-gnu"

%struct.expert_field = type { i32, i32 }
%struct.nstime_t = type { i64, i32 }
%struct._packet_info = type { ptr, ptr, i32, i32, %struct.nstime_t, %struct.nstime_t, %struct.nstime_t, i32, ptr, ptr, ptr, ptr, %struct._address, %struct._address, %struct._address, %struct._address, %struct._address, %struct._address, i32, ptr, i32, %struct.anon, i32, i32, i32, i32, ptr, i32, ptr, ptr, i16, i16, i32, i32, i16, i32, i32, ptr, ptr, ptr, i8, i8, i16, i16, i16, i32, i16, i16, ptr, ptr, ptr, ptr, ptr, i32 }
%struct._address = type { i32, i32, ptr, ptr }
%struct.anon = type { i8, [3 x i8] }

@hf_snmp_engineid_conform = internal global i32 0, align 4
@hf_snmp_engineid_enterprise = internal global i32 0, align 4
@hf_snmp_agentid_trailer = internal global i32 0, align 4
@ei_snmp_rfc1910_non_conformant = internal global %struct.expert_field zeroinitializer, align 4
@hf_snmp_engineid_format = internal global i32 0, align 4
@.str = private unnamed_addr constant [26 x i8] c"Engine ID Format: %s (%d)\00", align 1
@.str.1 = private unnamed_addr constant [29 x i8] c"Reserved/Enterprise-specific\00", align 1
@hf_snmp_engineid_ipv4 = internal global i32 0, align 4
@hf_snmp_engineid_ipv6 = internal global i32 0, align 4
@hf_snmp_engineid_cisco_type = internal global i32 0, align 4
@hf_snmp_engineid_mac = internal global i32 0, align 4
@hf_snmp_engineid_text = internal global i32 0, align 4
@.str.2 = private unnamed_addr constant [18 x i8] c": UCD-SNMP Random\00", align 1
@.str.3 = private unnamed_addr constant [18 x i8] c": Net-SNMP Random\00", align 1
@hf_snmp_engineid_data = internal global i32 0, align 4
@hf_snmp_engineid_time = internal global i32 0, align 4
@.str.4 = private unnamed_addr constant [3 x i8] c"%s\00", align 1
@ei_snmp_rfc3411_non_conformant = internal global %struct.expert_field zeroinitializer, align 4

; Function Attrs: nounwind uwtable
define hidden i32 @dissect_snmp_engineid(ptr noundef %0, ptr noundef %1, ptr noundef %2, i32 noundef %3, i32 noundef %4) #0 {
  %6 = alloca i32, align 4
  %7 = alloca ptr, align 8
  %8 = alloca ptr, align 8
  %9 = alloca ptr, align 8
  %10 = alloca i32, align 4
  %11 = alloca i32, align 4
  %12 = alloca ptr, align 8
  %13 = alloca i8, align 1
  %14 = alloca i8, align 1
  %15 = alloca i32, align 4
  %16 = alloca i64, align 8
  %17 = alloca %struct.nstime_t, align 8
  %18 = alloca i32, align 4
  store ptr %0, ptr %7, align 8
  store ptr %1, ptr %8, align 8
  store ptr %2, ptr %9, align 8
  store i32 %3, ptr %10, align 4
  store i32 %4, ptr %11, align 4
  store ptr null, ptr %12, align 8
  %19 = load i32, ptr %11, align 4
  store i32 %19, ptr %18, align 4
  %20 = load i32, ptr %18, align 4
  %21 = icmp slt i32 %20, 1
  br i1 %21, label %22, label %24

22:                                               ; preds = %5
  %23 = load i32, ptr %10, align 4
  store i32 %23, ptr %6, align 4
  br label %270

24:                                               ; preds = %5
  %25 = load ptr, ptr %9, align 8
  %26 = load i32, ptr %10, align 4
  %27 = call zeroext i8 @tvb_get_guint8(ptr noundef %25, i32 noundef %26)
  %28 = zext i8 %27 to i32
  %29 = ashr i32 %28, 7
  %30 = and i32 %29, 1
  %31 = trunc i32 %30 to i8
  store i8 %31, ptr %13, align 1
  %32 = load ptr, ptr %7, align 8
  %33 = load i32, ptr @hf_snmp_engineid_conform, align 4
  %34 = load ptr, ptr %9, align 8
  %35 = load i32, ptr %10, align 4
  %36 = call ptr @proto_tree_add_item(ptr noundef %32, i32 noundef %33, ptr noundef %34, i32 noundef %35, i32 noundef 1, i32 noundef 0)
  %37 = load i32, ptr %18, align 4
  %38 = icmp slt i32 %37, 4
  br i1 %38, label %39, label %41

39:                                               ; preds = %24
  %40 = load i32, ptr %10, align 4
  store i32 %40, ptr %6, align 4
  br label %270

41:                                               ; preds = %24
  %42 = load ptr, ptr %9, align 8
  %43 = load i32, ptr %10, align 4
  %44 = call i32 @tvb_get_ntohl(ptr noundef %42, i32 noundef %43)
  store i32 %44, ptr %15, align 4
  %45 = load i8, ptr %13, align 1
  %46 = icmp ne i8 %45, 0
  br i1 %46, label %47, label %50

47:                                               ; preds = %41
  %48 = load i32, ptr %15, align 4
  %49 = sub i32 %48, -2147483648
  store i32 %49, ptr %15, align 4
  br label %50

50:                                               ; preds = %47, %41
  %51 = load ptr, ptr %7, align 8
  %52 = load i32, ptr @hf_snmp_engineid_enterprise, align 4
  %53 = load ptr, ptr %9, align 8
  %54 = load i32, ptr %10, align 4
  %55 = load i32, ptr %15, align 4
  %56 = call ptr @proto_tree_add_uint(ptr noundef %51, i32 noundef %52, ptr noundef %53, i32 noundef %54, i32 noundef 4, i32 noundef %55)
  %57 = load i32, ptr %10, align 4
  %58 = add i32 %57, 4
  store i32 %58, ptr %10, align 4
  %59 = load i32, ptr %18, align 4
  %60 = sub i32 %59, 4
  store i32 %60, ptr %18, align 4
  %61 = load i8, ptr %13, align 1
  %62 = zext i8 %61 to i32
  switch i32 %62, label %255 [
    i32 0, label %63
    i32 1, label %85
  ]

63:                                               ; preds = %50
  %64 = load i32, ptr %18, align 4
  %65 = icmp eq i32 %64, 8
  br i1 %65, label %66, label %76

66:                                               ; preds = %63
  %67 = load ptr, ptr %7, align 8
  %68 = load i32, ptr @hf_snmp_agentid_trailer, align 4
  %69 = load ptr, ptr %9, align 8
  %70 = load i32, ptr %10, align 4
  %71 = call ptr @proto_tree_add_item(ptr noundef %67, i32 noundef %68, ptr noundef %69, i32 noundef %70, i32 noundef 8, i32 noundef 0)
  %72 = load i32, ptr %10, align 4
  %73 = add i32 %72, 8
  store i32 %73, ptr %10, align 4
  %74 = load i32, ptr %18, align 4
  %75 = sub i32 %74, 8
  store i32 %75, ptr %18, align 4
  br label %84

76:                                               ; preds = %63
  %77 = load ptr, ptr %7, align 8
  %78 = load ptr, ptr %8, align 8
  %79 = load ptr, ptr %9, align 8
  %80 = load i32, ptr %10, align 4
  %81 = load i32, ptr %18, align 4
  %82 = call ptr @proto_tree_add_expert(ptr noundef %77, ptr noundef %78, ptr noundef @ei_snmp_rfc1910_non_conformant, ptr noundef %79, i32 noundef %80, i32 noundef %81)
  %83 = load i32, ptr %10, align 4
  store i32 %83, ptr %6, align 4
  br label %270

84:                                               ; preds = %66
  br label %255

85:                                               ; preds = %50
  %86 = load i32, ptr %18, align 4
  %87 = icmp slt i32 %86, 1
  br i1 %87, label %88, label %90

88:                                               ; preds = %85
  %89 = load i32, ptr %10, align 4
  store i32 %89, ptr %6, align 4
  br label %270

90:                                               ; preds = %85
  %91 = load ptr, ptr %9, align 8
  %92 = load i32, ptr %10, align 4
  %93 = call zeroext i8 @tvb_get_guint8(ptr noundef %91, i32 noundef %92)
  store i8 %93, ptr %14, align 1
  %94 = load ptr, ptr %7, align 8
  %95 = load i32, ptr @hf_snmp_engineid_format, align 4
  %96 = load ptr, ptr %9, align 8
  %97 = load i32, ptr %10, align 4
  %98 = load i8, ptr %14, align 1
  %99 = zext i8 %98 to i32
  %100 = load i8, ptr %14, align 1
  %101 = zext i8 %100 to i32
  %102 = call ptr @val_to_str_const(i32 noundef %101, ptr noundef @snmp_engineid_format_vals, ptr noundef @.str.1)
  %103 = load i8, ptr %14, align 1
  %104 = zext i8 %103 to i32
  %105 = call ptr (ptr, i32, ptr, i32, i32, i32, ptr, ...) @proto_tree_add_uint_format(ptr noundef %94, i32 noundef %95, ptr noundef %96, i32 noundef %97, i32 noundef 1, i32 noundef %99, ptr noundef @.str, ptr noundef %102, i32 noundef %104)
  store ptr %105, ptr %12, align 8
  %106 = load i32, ptr %10, align 4
  %107 = add i32 %106, 1
  store i32 %107, ptr %10, align 4
  %108 = load i32, ptr %18, align 4
  %109 = sub i32 %108, 1
  store i32 %109, ptr %18, align 4
  %110 = load i8, ptr %14, align 1
  %111 = zext i8 %110 to i32
  switch i32 %111, label %237 [
    i32 1, label %112
    i32 2, label %124
    i32 3, label %136
    i32 4, label %164
    i32 6, label %178
    i32 128, label %179
    i32 5, label %236
  ]

112:                                              ; preds = %90
  %113 = load i32, ptr %18, align 4
  %114 = icmp eq i32 %113, 4
  br i1 %114, label %115, label %123

115:                                              ; preds = %112
  %116 = load ptr, ptr %7, align 8
  %117 = load i32, ptr @hf_snmp_engineid_ipv4, align 4
  %118 = load ptr, ptr %9, align 8
  %119 = load i32, ptr %10, align 4
  %120 = call ptr @proto_tree_add_item(ptr noundef %116, i32 noundef %117, ptr noundef %118, i32 noundef %119, i32 noundef 4, i32 noundef 0)
  %121 = load i32, ptr %10, align 4
  %122 = add i32 %121, 4
  store i32 %122, ptr %10, align 4
  store i32 0, ptr %18, align 4
  br label %123

123:                                              ; preds = %115, %112
  br label %254

124:                                              ; preds = %90
  %125 = load i32, ptr %18, align 4
  %126 = icmp eq i32 %125, 16
  br i1 %126, label %127, label %135

127:                                              ; preds = %124
  %128 = load ptr, ptr %7, align 8
  %129 = load i32, ptr @hf_snmp_engineid_ipv6, align 4
  %130 = load ptr, ptr %9, align 8
  %131 = load i32, ptr %10, align 4
  %132 = call ptr @proto_tree_add_item(ptr noundef %128, i32 noundef %129, ptr noundef %130, i32 noundef %131, i32 noundef 16, i32 noundef 0)
  %133 = load i32, ptr %10, align 4
  %134 = add i32 %133, 16
  store i32 %134, ptr %10, align 4
  store i32 0, ptr %18, align 4
  br label %135

135:                                              ; preds = %127, %124
  br label %254

136:                                              ; preds = %90
  %137 = load i32, ptr %15, align 4
  %138 = icmp eq i32 %137, 9
  br i1 %138, label %139, label %152

139:                                              ; preds = %136
  %140 = load i32, ptr %18, align 4
  %141 = icmp eq i32 %140, 7
  br i1 %141, label %142, label %152

142:                                              ; preds = %139
  %143 = load ptr, ptr %7, align 8
  %144 = load i32, ptr @hf_snmp_engineid_cisco_type, align 4
  %145 = load ptr, ptr %9, align 8
  %146 = load i32, ptr %10, align 4
  %147 = call ptr @proto_tree_add_item(ptr noundef %143, i32 noundef %144, ptr noundef %145, i32 noundef %146, i32 noundef 1, i32 noundef 0)
  %148 = load i32, ptr %10, align 4
  %149 = add i32 %148, 1
  store i32 %149, ptr %10, align 4
  %150 = load i32, ptr %18, align 4
  %151 = add i32 %150, -1
  store i32 %151, ptr %18, align 4
  br label %152

152:                                              ; preds = %142, %139, %136
  %153 = load i32, ptr %18, align 4
  %154 = icmp eq i32 %153, 6
  br i1 %154, label %155, label %163

155:                                              ; preds = %152
  %156 = load ptr, ptr %7, align 8
  %157 = load i32, ptr @hf_snmp_engineid_mac, align 4
  %158 = load ptr, ptr %9, align 8
  %159 = load i32, ptr %10, align 4
  %160 = call ptr @proto_tree_add_item(ptr noundef %156, i32 noundef %157, ptr noundef %158, i32 noundef %159, i32 noundef 6, i32 noundef 0)
  %161 = load i32, ptr %10, align 4
  %162 = add i32 %161, 6
  store i32 %162, ptr %10, align 4
  store i32 0, ptr %18, align 4
  br label %163

163:                                              ; preds = %155, %152
  br label %254

164:                                              ; preds = %90
  %165 = load i32, ptr %18, align 4
  %166 = icmp sle i32 %165, 27
  br i1 %166, label %167, label %177

167:                                              ; preds = %164
  %168 = load ptr, ptr %7, align 8
  %169 = load i32, ptr @hf_snmp_engineid_text, align 4
  %170 = load ptr, ptr %9, align 8
  %171 = load i32, ptr %10, align 4
  %172 = load i32, ptr %18, align 4
  %173 = call ptr @proto_tree_add_item(ptr noundef %168, i32 noundef %169, ptr noundef %170, i32 noundef %171, i32 noundef %172, i32 noundef 0)
  %174 = load i32, ptr %18, align 4
  %175 = load i32, ptr %10, align 4
  %176 = add i32 %175, %174
  store i32 %176, ptr %10, align 4
  store i32 0, ptr %18, align 4
  br label %177

177:                                              ; preds = %167, %164
  br label %254

178:                                              ; preds = %90
  br label %254

179:                                              ; preds = %90
  %180 = load i32, ptr %15, align 4
  %181 = icmp eq i32 %180, 2021
  br i1 %181, label %185, label %182

182:                                              ; preds = %179
  %183 = load i32, ptr %15, align 4
  %184 = icmp eq i32 %183, 8072
  br i1 %184, label %185, label %235

185:                                              ; preds = %182, %179
  %186 = load ptr, ptr %12, align 8
  %187 = load i32, ptr %15, align 4
  %188 = icmp eq i32 %187, 2021
  %189 = select i1 %188, ptr @.str.2, ptr @.str.3
  call void (ptr, ptr, ...) @proto_item_append_text(ptr noundef %186, ptr noundef %189)
  %190 = load i32, ptr %18, align 4
  %191 = icmp eq i32 %190, 8
  br i1 %191, label %195, label %192

192:                                              ; preds = %185
  %193 = load i32, ptr %18, align 4
  %194 = icmp eq i32 %193, 12
  br i1 %194, label %195, label %234

195:                                              ; preds = %192, %185
  %196 = load ptr, ptr %7, align 8
  %197 = load i32, ptr @hf_snmp_engineid_data, align 4
  %198 = load ptr, ptr %9, align 8
  %199 = load i32, ptr %10, align 4
  %200 = call ptr @proto_tree_add_item(ptr noundef %196, i32 noundef %197, ptr noundef %198, i32 noundef %199, i32 noundef 4, i32 noundef 0)
  %201 = load i32, ptr %18, align 4
  %202 = icmp eq i32 %201, 8
  br i1 %202, label %203, label %209

203:                                              ; preds = %195
  %204 = load ptr, ptr %9, align 8
  %205 = load i32, ptr %10, align 4
  %206 = add i32 %205, 4
  %207 = call i32 @tvb_get_letohl(ptr noundef %204, i32 noundef %206)
  %208 = zext i32 %207 to i64
  store i64 %208, ptr %16, align 8
  br label %214

209:                                              ; preds = %195
  %210 = load ptr, ptr %9, align 8
  %211 = load i32, ptr %10, align 4
  %212 = add i32 %211, 4
  %213 = call i64 @tvb_get_letohi64(ptr noundef %210, i32 noundef %212)
  store i64 %213, ptr %16, align 8
  br label %214

214:                                              ; preds = %209, %203
  %215 = load i64, ptr %16, align 8
  %216 = getelementptr inbounds %struct.nstime_t, ptr %17, i32 0, i32 0
  store i64 %215, ptr %216, align 8
  %217 = getelementptr inbounds %struct.nstime_t, ptr %17, i32 0, i32 1
  store i32 0, ptr %217, align 8
  %218 = load ptr, ptr %7, align 8
  %219 = load i32, ptr @hf_snmp_engineid_time, align 4
  %220 = load ptr, ptr %9, align 8
  %221 = load i32, ptr %10, align 4
  %222 = add i32 %221, 4
  %223 = load i32, ptr %18, align 4
  %224 = sub i32 %223, 4
  %225 = load ptr, ptr %8, align 8
  %226 = getelementptr inbounds %struct._packet_info, ptr %225, i32 0, i32 50
  %227 = load ptr, ptr %226, align 8
  %228 = load i64, ptr %16, align 8
  %229 = call ptr @abs_time_secs_to_str_ex(ptr noundef %227, i64 noundef %228, i32 noundef 18, i32 noundef 1)
  %230 = call ptr (ptr, i32, ptr, i32, i32, ptr, ptr, ...) @proto_tree_add_time_format_value(ptr noundef %218, i32 noundef %219, ptr noundef %220, i32 noundef %222, i32 noundef %224, ptr noundef %17, ptr noundef @.str.4, ptr noundef %229)
  %231 = load i32, ptr %18, align 4
  %232 = load i32, ptr %10, align 4
  %233 = add i32 %232, %231
  store i32 %233, ptr %10, align 4
  store i32 0, ptr %18, align 4
  br label %234

234:                                              ; preds = %214, %192
  br label %254

235:                                              ; preds = %182
  br label %236

236:                                              ; preds = %235, %90
  br label %237

237:                                              ; preds = %236, %90
  %238 = load i32, ptr %18, align 4
  %239 = icmp sgt i32 %238, 0
  br i1 %239, label %240, label %253

240:                                              ; preds = %237
  %241 = load i32, ptr %18, align 4
  %242 = icmp sle i32 %241, 27
  br i1 %242, label %243, label %253

243:                                              ; preds = %240
  %244 = load ptr, ptr %7, align 8
  %245 = load i32, ptr @hf_snmp_engineid_data, align 4
  %246 = load ptr, ptr %9, align 8
  %247 = load i32, ptr %10, align 4
  %248 = load i32, ptr %18, align 4
  %249 = call ptr @proto_tree_add_item(ptr noundef %244, i32 noundef %245, ptr noundef %246, i32 noundef %247, i32 noundef %248, i32 noundef 0)
  %250 = load i32, ptr %18, align 4
  %251 = load i32, ptr %10, align 4
  %252 = add i32 %251, %250
  store i32 %252, ptr %10, align 4
  store i32 0, ptr %18, align 4
  br label %253

253:                                              ; preds = %243, %240, %237
  br label %254

254:                                              ; preds = %253, %234, %178, %177, %163, %135, %123
  br label %255

255:                                              ; preds = %254, %84, %50
  %256 = load i32, ptr %18, align 4
  %257 = icmp sgt i32 %256, 0
  br i1 %257, label %258, label %268

258:                                              ; preds = %255
  %259 = load ptr, ptr %7, align 8
  %260 = load ptr, ptr %8, align 8
  %261 = load ptr, ptr %9, align 8
  %262 = load i32, ptr %10, align 4
  %263 = load i32, ptr %18, align 4
  %264 = call ptr @proto_tree_add_expert(ptr noundef %259, ptr noundef %260, ptr noundef @ei_snmp_rfc3411_non_conformant, ptr noundef %261, i32 noundef %262, i32 noundef %263)
  %265 = load i32, ptr %18, align 4
  %266 = load i32, ptr %10, align 4
  %267 = add i32 %266, %265
  store i32 %267, ptr %10, align 4
  br label %268

268:                                              ; preds = %258, %255
  %269 = load i32, ptr %10, align 4
  store i32 %269, ptr %6, align 4
  br label %270

270:                                              ; preds = %268, %88, %76, %39, %22
  %271 = load i32, ptr %6, align 4
  ret i32 %271
}