; Function Attrs: nounwind uwtable
define hidden noundef i32 @dissect_snmp_engineid(ptr noundef %0, ptr noundef %1, ptr noundef %2, i32 noundef %3, i32 noundef %4) local_unnamed_addr #0 {
  %6 = alloca %struct.nstime_t, align 8
  %7 = icmp slt i32 %4, 1
  br i1 %7, label %.thread135, label %8

8:                                                ; preds = %5
  %9 = tail call zeroext i8 @tvb_get_guint8(ptr noundef %2, i32 noundef %3) #11
  %10 = load i32, ptr @hf_snmp_engineid_conform, align 4
  %11 = tail call ptr @proto_tree_add_item(ptr noundef %0, i32 noundef %10, ptr noundef %2, i32 noundef %3, i32 noundef 1, i32 noundef 0) #11
  %12 = icmp samesign ult i32 %4, 4
  br i1 %12, label %.thread135, label %13

13:                                               ; preds = %8
  %14 = tail call i32 @tvb_get_ntohl(ptr noundef %2, i32 noundef %3) #11
  %15 = xor i32 %14, -2147483648
  %.not143 = icmp slt i8 %9, 0
  %spec.select = select i1 %.not143, i32 %15, i32 %14
  %16 = load i32, ptr @hf_snmp_engineid_enterprise, align 4
  %17 = tail call ptr @proto_tree_add_uint(ptr noundef %0, i32 noundef %16, ptr noundef %2, i32 noundef %3, i32 noundef 4, i32 noundef %spec.select) #11
  %18 = add i32 %3, 4
  %19 = add nsw i32 %4, -4
  %trunc = icmp sgt i8 %9, -1
  br i1 %trunc, label %20, label %28

20:                                               ; preds = %13
  %21 = icmp eq i32 %19, 8
  br i1 %21, label %22, label %26

22:                                               ; preds = %20
  %23 = load i32, ptr @hf_snmp_agentid_trailer, align 4
  %24 = tail call ptr @proto_tree_add_item(ptr noundef %0, i32 noundef %23, ptr noundef %2, i32 noundef %18, i32 noundef 8, i32 noundef 0) #11
  %25 = add i32 %3, 12
  br label %.thread135

26:                                               ; preds = %20
  %27 = tail call ptr @proto_tree_add_expert(ptr noundef %0, ptr noundef %1, ptr noundef nonnull @ei_snmp_rfc1910_non_conformant, ptr noundef %2, i32 noundef %18, i32 noundef %19) #11
  br label %.thread135

28:                                               ; preds = %13
  %29 = icmp eq i32 %4, 4
  br i1 %29, label %.thread135, label %30

30:                                               ; preds = %28
  %31 = tail call zeroext i8 @tvb_get_guint8(ptr noundef %2, i32 noundef %18) #11
  %32 = load i32, ptr @hf_snmp_engineid_format, align 4
  %33 = zext i8 %31 to i32
  %34 = tail call ptr @val_to_str_const(i32 noundef %33, ptr noundef nonnull @snmp_engineid_format_vals, ptr noundef nonnull @.str.1) #11
  %35 = tail call ptr (ptr, i32, ptr, i32, i32, i32, ptr, ...) @proto_tree_add_uint_format(ptr noundef %0, i32 noundef %32, ptr noundef %2, i32 noundef %18, i32 noundef 1, i32 noundef %33, ptr noundef nonnull @.str, ptr noundef %34, i32 noundef %33) #11
  %36 = add i32 %3, 5
  %37 = add nsw i32 %4, -5
  switch i8 %31, label %88 [
    i8 1, label %38
    i8 2, label %43
    i8 3, label %48
    i8 4, label %59
    i8 6, label %94
    i8 -128, label %65
  ]

38:                                               ; preds = %30
  switch i32 %4, label %.thread138 [
    i32 9, label %39
    i32 5, label %.thread135
  ]

39:                                               ; preds = %38
  %40 = load i32, ptr @hf_snmp_engineid_ipv4, align 4
  %41 = tail call ptr @proto_tree_add_item(ptr noundef %0, i32 noundef %40, ptr noundef %2, i32 noundef %36, i32 noundef 4, i32 noundef 0) #11
  %42 = add i32 %3, 9
  br label %.thread135

43:                                               ; preds = %30
  switch i32 %4, label %.thread138 [
    i32 21, label %44
    i32 5, label %.thread135
  ]

44:                                               ; preds = %43
  %45 = load i32, ptr @hf_snmp_engineid_ipv6, align 4
  %46 = tail call ptr @proto_tree_add_item(ptr noundef %0, i32 noundef %45, ptr noundef %2, i32 noundef %36, i32 noundef 16, i32 noundef 0) #11
  %47 = add i32 %3, 21
  br label %.thread135

48:                                               ; preds = %30
  %49 = icmp eq i32 %14, -2147483639
  %50 = icmp eq i32 %37, 7
  %or.cond = select i1 %49, i1 %50, i1 false
  br i1 %or.cond, label %.thread, label %54

.thread:                                          ; preds = %48
  %51 = load i32, ptr @hf_snmp_engineid_cisco_type, align 4
  %52 = tail call ptr @proto_tree_add_item(ptr noundef %0, i32 noundef %51, ptr noundef %2, i32 noundef %36, i32 noundef 1, i32 noundef 0) #11
  %53 = add i32 %3, 6
  br label %55

54:                                               ; preds = %48
  switch i32 %4, label %.thread138 [
    i32 11, label %55
    i32 5, label %.thread135
  ]

55:                                               ; preds = %54, %.thread
  %.1126134 = phi i32 [ %53, %.thread ], [ %36, %54 ]
  %56 = load i32, ptr @hf_snmp_engineid_mac, align 4
  %57 = tail call ptr @proto_tree_add_item(ptr noundef %0, i32 noundef %56, ptr noundef %2, i32 noundef %.1126134, i32 noundef 6, i32 noundef 0) #11
  %58 = add i32 %.1126134, 6
  br label %.thread135

59:                                               ; preds = %30
  %60 = icmp samesign ult i32 %4, 33
  br i1 %60, label %61, label %.thread138

61:                                               ; preds = %59
  %62 = load i32, ptr @hf_snmp_engineid_text, align 4
  %63 = tail call ptr @proto_tree_add_item(ptr noundef %0, i32 noundef %62, ptr noundef %2, i32 noundef %36, i32 noundef %37, i32 noundef 0) #11
  %64 = add i32 %4, %3
  br label %.thread135

65:                                               ; preds = %30
  switch i32 %15, label %88 [
    i32 8072, label %66
    i32 2021, label %66
  ]

66:                                               ; preds = %65, %65
  %67 = icmp eq i32 %14, -2147481627
  %68 = select i1 %67, ptr @.str.2, ptr @.str.3
  tail call void (ptr, ptr, ...) @proto_item_append_text(ptr noundef %35, ptr noundef nonnull %68) #11
  switch i32 %4, label %94 [
    i32 17, label %69
    i32 13, label %69
  ]

69:                                               ; preds = %66, %66
  %70 = icmp eq i32 %37, 8
  %71 = load i32, ptr @hf_snmp_engineid_data, align 4
  %72 = tail call ptr @proto_tree_add_item(ptr noundef %0, i32 noundef %71, ptr noundef %2, i32 noundef %36, i32 noundef 4, i32 noundef 0) #11
  %73 = add i32 %3, 9
  br i1 %70, label %74, label %77

74:                                               ; preds = %69
  %75 = tail call i32 @tvb_get_letohl(ptr noundef %2, i32 noundef %73) #11
  %76 = zext i32 %75 to i64
  br label %79

77:                                               ; preds = %69
  %78 = tail call i64 @tvb_get_letohi64(ptr noundef %2, i32 noundef %73) #11
  br label %79

79:                                               ; preds = %77, %74
  %.0122 = phi i64 [ %78, %77 ], [ %76, %74 ]
  store i64 %.0122, ptr %6, align 8
  %80 = getelementptr inbounds nuw i8, ptr %6, i64 8
  store i32 0, ptr %80, align 8
  %81 = load i32, ptr @hf_snmp_engineid_time, align 4
  %82 = add nsw i32 %4, -9
  %83 = getelementptr inbounds nuw i8, ptr %1, i64 408
  %84 = load ptr, ptr %83, align 8
  %85 = tail call ptr @abs_time_secs_to_str_ex(ptr noundef %84, i64 noundef %.0122, i32 noundef 18, i32 noundef 1) #11
  %86 = call ptr (ptr, i32, ptr, i32, i32, ptr, ptr, ...) @proto_tree_add_time_format_value(ptr noundef %0, i32 noundef %81, ptr noundef %2, i32 noundef %73, i32 noundef %82, ptr noundef nonnull %6, ptr noundef nonnull @.str.4, ptr noundef %85) #11
  %87 = add i32 %4, %3
  br label %.thread135

88:                                               ; preds = %65, %30
  %89 = add nsw i32 %4, -6
  %or.cond7 = icmp ult i32 %89, 27
  br i1 %or.cond7, label %90, label %94

90:                                               ; preds = %88
  %91 = load i32, ptr @hf_snmp_engineid_data, align 4
  %92 = tail call ptr @proto_tree_add_item(ptr noundef %0, i32 noundef %91, ptr noundef %2, i32 noundef %36, i32 noundef %37, i32 noundef 0) #11
  %93 = add i32 %4, %3
  br label %.thread135

94:                                               ; preds = %66, %30, %88
  %.not = icmp eq i32 %37, 0
  br i1 %.not, label %.thread135, label %.thread138

.thread138:                                       ; preds = %38, %43, %54, %59, %94
  %95 = tail call ptr @proto_tree_add_expert(ptr noundef %0, ptr noundef %1, ptr noundef nonnull @ei_snmp_rfc3411_non_conformant, ptr noundef %2, i32 noundef %36, i32 noundef %37) #11
  %96 = add i32 %4, %3
  br label %.thread135

.thread135:                                       ; preds = %38, %43, %54, %22, %39, %44, %55, %61, %79, %90, %94, %.thread138, %28, %8, %5, %26
  %.0124 = phi i32 [ %18, %26 ], [ %3, %5 ], [ %3, %8 ], [ %18, %28 ], [ %96, %.thread138 ], [ %36, %94 ], [ %25, %22 ], [ %42, %39 ], [ %47, %44 ], [ %58, %55 ], [ %64, %61 ], [ %87, %79 ], [ %93, %90 ], [ %36, %54 ], [ %36, %43 ], [ %36, %38 ]
  ret i32 %.0124
}